target datalayout = "e-m:e-p270:32:32-p271:32:32-p272:64:64-i64:64-i128:128-f80:128-n8:16:32:64-S128"
target triple = "x86_64-pc-linux-gnu"

%struct.strbuf = type { i64, i64, ptr }
%struct.object_id = type { [32 x i8], i32 }
%struct.apply_state = type { ptr, %struct.lock_file, i32, i32, i32, i32, i32, i32, i32, i32, i32, i32, i32, i32, i32, i32, i32, i32, i32, ptr, ptr, i32, i32, ptr, ptr, i32, %struct.strbuf, i32, i32, i32, %struct.string_list, i32, i32, %struct.strset, %struct.strset, i32, i32, %struct.string_list, ptr, ptr, i32, i32, ptr, i32, i32, i32 }
%struct.lock_file = type { ptr }
%struct.strset = type { %struct.strmap }
%struct.strmap = type { %struct.hashmap, ptr, i8 }
%struct.hashmap = type { ptr, ptr, ptr, i32, i32, i32, i32, i8 }
%struct.string_list = type { ptr, i64, i64, i8, ptr }
%struct.repository = type { ptr, ptr, ptr, ptr, ptr, %struct.strmap, %struct.strmap, %struct.repo_path_cache, ptr, ptr, ptr, ptr, %struct.repo_settings, ptr, ptr, ptr, ptr, ptr, ptr, i32, i32, i32, ptr, ptr, i32, i32, i8 }
%struct.repo_path_cache = type { ptr, ptr, ptr, ptr, ptr, ptr, ptr }
%struct.repo_settings = type { i32, i32, i32, i32, i32, i32, i32, i32, i32, i32, i32, i32, ptr, i32, i32, i32, i32, i32, i32, i32, i64, i64, i64 }
%struct.cache_time = type { i32, i32 }
%struct.stat = type { i64, i64, i64, i32, i32, i32, i32, i64, i64, i64, i64, %struct.timespec, %struct.timespec, %struct.timespec, [3 x i64] }
%struct.timespec = type { i64, i64 }
%struct.cache_entry = type { %struct.hashmap_entry, %struct.stat_data, i32, i32, i32, i32, i32, %struct.object_id, [0 x i8] }
%struct.hashmap_entry = type { ptr, i32 }
%struct.stat_data = type { %struct.cache_time, %struct.cache_time, i32, i32, i32, i32, i32 }

@__const.path_is_beyond_symlink.name = private unnamed_addr constant %struct.strbuf { i64 0, i64 0, ptr @strbuf_slopbuf }, align 8
@ignore_case = external global i32, align 4

; Function Attrs: inlinehint nounwind uwtable
define internal i32 @strset_contains(ptr noundef %0, ptr noundef %1) #3 {
  %3 = alloca ptr, align 8
  %4 = alloca ptr, align 8
  store ptr %0, ptr %3, align 8, !tbaa !36
  store ptr %1, ptr %4, align 8, !tbaa !11
  %5 = load ptr, ptr %3, align 8, !tbaa !36
  %6 = getelementptr inbounds nuw %struct.strset, ptr %5, i32 0, i32 0
  %7 = load ptr, ptr %4, align 8, !tbaa !11
  %8 = call i32 @strmap_contains(ptr noundef %6, ptr noundef %7)
  ret i32 %8
}

; Function Attrs: nounwind uwtable
define internal i32 @path_is_beyond_symlink_1(ptr noundef %0, ptr noundef %1) #0 {
  %3 = alloca i32, align 4
  %4 = alloca ptr, align 8
  %5 = alloca ptr, align 8
  %6 = alloca ptr, align 8
  %7 = alloca i32, align 4
  %8 = alloca %struct.stat, align 8
  store ptr %0, ptr %4, align 8, !tbaa !4
  store ptr %1, ptr %5, align 8, !tbaa !75
  br label %9

9:                                                ; preds = %111, %2
  br label %10

10:                                               ; preds = %29, %9
  %11 = load ptr, ptr %5, align 8, !tbaa !75
  %12 = getelementptr inbounds nuw %struct.strbuf, ptr %11, i32 0, i32 1
  %13 = load i64, ptr %12, align 8, !tbaa !81
  %14 = add i64 %13, -1
  store i64 %14, ptr %12, align 8, !tbaa !81
  %15 = icmp ne i64 %14, 0
  br i1 %15, label %16, label %27

16:                                               ; preds = %10
  %17 = load ptr, ptr %5, align 8, !tbaa !75
  %18 = getelementptr inbounds nuw %struct.strbuf, ptr %17, i32 0, i32 2
  %19 = load ptr, ptr %18, align 8, !tbaa !82
  %20 = load ptr, ptr %5, align 8, !tbaa !75
  %21 = getelementptr inbounds nuw %struct.strbuf, ptr %20, i32 0, i32 1
  %22 = load i64, ptr %21, align 8, !tbaa !81
  %23 = getelementptr inbounds nuw i8, ptr %19, i64 %22
  %24 = load i8, ptr %23, align 1, !tbaa !57
  %25 = sext i8 %24 to i32
  %26 = icmp ne i32 %25, 47
  br label %27

27:                                               ; preds = %16, %10
  %28 = phi i1 [ false, %10 ], [ %26, %16 ]
  br i1 %28, label %29, label %30

29:                                               ; preds = %27
  br label %10, !llvm.loop !258

30:                                               ; preds = %27
  %31 = load ptr, ptr %5, align 8, !tbaa !75
  %32 = getelementptr inbounds nuw %struct.strbuf, ptr %31, i32 0, i32 1
  %33 = load i64, ptr %32, align 8, !tbaa !81
  %34 = icmp ne i64 %33, 0
  br i1 %34, label %36, label %35

35:                                               ; preds = %30
  br label %112

36:                                               ; preds = %30
  %37 = load ptr, ptr %5, align 8, !tbaa !75
  %38 = getelementptr inbounds nuw %struct.strbuf, ptr %37, i32 0, i32 2
  %39 = load ptr, ptr %38, align 8, !tbaa !82
  %40 = load ptr, ptr %5, align 8, !tbaa !75
  %41 = getelementptr inbounds nuw %struct.strbuf, ptr %40, i32 0, i32 1
  %42 = load i64, ptr %41, align 8, !tbaa !81
  %43 = getelementptr inbounds nuw i8, ptr %39, i64 %42
  store i8 0, ptr %43, align 1, !tbaa !57
  %44 = load ptr, ptr %4, align 8, !tbaa !4
  %45 = getelementptr inbounds nuw %struct.apply_state, ptr %44, i32 0, i32 34
  %46 = load ptr, ptr %5, align 8, !tbaa !75
  %47 = getelementptr inbounds nuw %struct.strbuf, ptr %46, i32 0, i32 2
  %48 = load ptr, ptr %47, align 8, !tbaa !82
  %49 = call i32 @strset_contains(ptr noundef %45, ptr noundef %48)
  %50 = icmp ne i32 %49, 0
  br i1 %50, label %51, label %52

51:                                               ; preds = %36
  store i32 1, ptr %3, align 4
  br label %113

52:                                               ; preds = %36
  %53 = load ptr, ptr %4, align 8, !tbaa !4
  %54 = getelementptr inbounds nuw %struct.apply_state, ptr %53, i32 0, i32 33
  %55 = load ptr, ptr %5, align 8, !tbaa !75
  %56 = getelementptr inbounds nuw %struct.strbuf, ptr %55, i32 0, i32 2
  %57 = load ptr, ptr %56, align 8, !tbaa !82
  %58 = call i32 @strset_contains(ptr noundef %54, ptr noundef %57)
  %59 = icmp ne i32 %58, 0
  br i1 %59, label %60, label %61

60:                                               ; preds = %52
  br label %111

61:                                               ; preds = %52
  %62 = load ptr, ptr %4, align 8, !tbaa !4
  %63 = getelementptr inbounds nuw %struct.apply_state, ptr %62, i32 0, i32 5
  %64 = load i32, ptr %63, align 4, !tbaa !46
  %65 = icmp ne i32 %64, 0
  br i1 %65, label %66, label %94

66:                                               ; preds = %61
  call void @llvm.lifetime.start.p0(i64 8, ptr %6) #12
  %67 = load ptr, ptr %4, align 8, !tbaa !4
  %68 = getelementptr inbounds nuw %struct.apply_state, ptr %67, i32 0, i32 19
  %69 = load ptr, ptr %68, align 8, !tbaa !27
  %70 = getelementptr inbounds nuw %struct.repository, ptr %69, i32 0, i32 15
  %71 = load ptr, ptr %70, align 8, !tbaa !125
  %72 = load ptr, ptr %5, align 8, !tbaa !75
  %73 = getelementptr inbounds nuw %struct.strbuf, ptr %72, i32 0, i32 2
  %74 = load ptr, ptr %73, align 8, !tbaa !82
  %75 = load ptr, ptr %5, align 8, !tbaa !75
  %76 = getelementptr inbounds nuw %struct.strbuf, ptr %75, i32 0, i32 1
  %77 = load i64, ptr %76, align 8, !tbaa !81
  %78 = trunc i64 %77 to i32
  %79 = load i32, ptr @ignore_case, align 4, !tbaa !39
  %80 = call ptr @index_file_exists(ptr noundef %71, ptr noundef %74, i32 noundef %78, i32 noundef %79)
  store ptr %80, ptr %6, align 8, !tbaa !201
  %81 = load ptr, ptr %6, align 8, !tbaa !201
  %82 = icmp ne ptr %81, null
  br i1 %82, label %83, label %90

83:                                               ; preds = %66
  %84 = load ptr, ptr %6, align 8, !tbaa !201
  %85 = getelementptr inbounds nuw %struct.cache_entry, ptr %84, i32 0, i32 2
  %86 = load i32, ptr %85, align 4, !tbaa !39
  %87 = and i32 %86, 61440
  %88 = icmp eq i32 %87, 40960
  br i1 %88, label %89, label %90

89:                                               ; preds = %83
  store i32 1, ptr %3, align 4
  store i32 1, ptr %7, align 4
  br label %91

90:                                               ; preds = %83, %66
  store i32 0, ptr %7, align 4
  br label %91

91:                                               ; preds = %90, %89
  call void @llvm.lifetime.end.p0(i64 8, ptr %6) #12
  %92 = load i32, ptr %7, align 4
  switch i32 %92, label %115 [
    i32 0, label %93
    i32 1, label %113
  ]

93:                                               ; preds = %91
  br label %110

94:                                               ; preds = %61
  call void @llvm.lifetime.start.p0(i64 144, ptr %8) #12
  %95 = load ptr, ptr %5, align 8, !tbaa !75
  %96 = getelementptr inbounds nuw %struct.strbuf, ptr %95, i32 0, i32 2
  %97 = load ptr, ptr %96, align 8, !tbaa !82
  %98 = call i32 @lstat64(ptr noundef %97, ptr noundef %8) #12
  %99 = icmp ne i32 %98, 0
  br i1 %99, label %106, label %100

100:                                              ; preds = %94
  %101 = getelementptr inbounds nuw %struct.stat, ptr %8, i32 0, i32 3
  %102 = load i32, ptr %101, align 8, !tbaa !244
  %103 = and i32 %102, 61440
  %104 = icmp eq i32 %103, 40960
  br i1 %104, label %105, label %106

105:                                              ; preds = %100
  store i32 1, ptr %3, align 4
  store i32 1, ptr %7, align 4
  br label %107

106:                                              ; preds = %100, %94
  store i32 0, ptr %7, align 4
  br label %107

107:                                              ; preds = %106, %105
  call void @llvm.lifetime.end.p0(i64 144, ptr %8) #12
  %108 = load i32, ptr %7, align 4
  switch i32 %108, label %115 [
    i32 0, label %109
    i32 1, label %113
  ]

109:                                              ; preds = %107
  br label %110

110:                                              ; preds = %109, %93
  br label %111

111:                                              ; preds = %110, %60
  br i1 true, label %9, label %112

112:                                              ; preds = %111, %35
  store i32 0, ptr %3, align 4
  br label %113

113:                                              ; preds = %112, %107, %91, %51
  %114 = load i32, ptr %3, align 4
  ret i32 %114

115:                                              ; preds = %107, %91
  unreachable
}

; Function Attrs: inlinehint nounwind uwtable
define internal void @strbuf_addstr(ptr noundef %0, ptr noundef %1) #3 {
  %3 = alloca ptr, align 8
  %4 = alloca ptr, align 8
  store ptr %0, ptr %3, align 8, !tbaa !75
  store ptr %1, ptr %4, align 8, !tbaa !11
  %5 = load ptr, ptr %3, align 8, !tbaa !75
  %6 = load ptr, ptr %4, align 8, !tbaa !11
  %7 = load ptr, ptr %4, align 8, !tbaa !11
  %8 = call i64 @strlen(ptr noundef %7) #11
  call void @strbuf_add(ptr noundef %5, ptr noundef %6, i64 noundef %8)
  ret void
}

; Function Attrs: nounwind uwtable
define internal i32 @path_is_beyond_symlink(ptr noundef %0, ptr noundef %1) #0 {
  %3 = alloca ptr, align 8
  %4 = alloca ptr, align 8
  %5 = alloca i32, align 4
  %6 = alloca %struct.strbuf, align 8
  store ptr %0, ptr %3, align 8, !tbaa !4
  store ptr %1, ptr %4, align 8, !tbaa !11
  call void @llvm.lifetime.start.p0(i64 4, ptr %5) #12
  call void @llvm.lifetime.start.p0(i64 24, ptr %6) #12
  call void @llvm.memcpy.p0.p0.i64(ptr align 8 %6, ptr align 8 @__const.path_is_beyond_symlink.name, i64 24, i1 false)
  %7 = load ptr, ptr %4, align 8, !tbaa !11
  call void @strbuf_addstr(ptr noundef %6, ptr noundef %7)
  %8 = load ptr, ptr %3, align 8, !tbaa !4
  %9 = call i32 @path_is_beyond_symlink_1(ptr noundef %8, ptr noundef %6)
  store i32 %9, ptr %5, align 4, !tbaa !39
  call void @strbuf_release(ptr noundef %6)
  %10 = load i32, ptr %5, align 4, !tbaa !39
  call void @llvm.lifetime.end.p0(i64 24, ptr %6) #12
  call void @llvm.lifetime.end.p0(i64 4, ptr %5) #12
  ret i32 %10
}