; Function Attrs: nounwind uwtable
define internal fastcc range(i32 0, 2) i32 @path_is_beyond_symlink(ptr noundef %0, ptr noundef %1) unnamed_addr #0 {
  %3 = alloca %struct.stat, align 8
  %4 = alloca %struct.strbuf, align 8
  call void @llvm.lifetime.start.p0(i64 24, ptr nonnull %4) #21
  call void @llvm.memcpy.p0.p0.i64(ptr noundef nonnull align 8 dereferenceable(24) %4, ptr noundef nonnull align 8 dereferenceable(24) @__const.show_stats.qname, i64 24, i1 false)
  %5 = tail call i64 @strlen(ptr noundef nonnull dereferenceable(1) %1) #22
  call void @strbuf_add(ptr noundef nonnull %4, ptr noundef nonnull %1, i64 noundef %5) #21
  %6 = getelementptr inbounds nuw i8, ptr %4, i64 8
  %7 = getelementptr inbounds nuw i8, ptr %4, i64 16
  %8 = getelementptr inbounds nuw i8, ptr %0, i64 288
  %9 = getelementptr inbounds nuw i8, ptr %0, i64 224
  %10 = getelementptr inbounds nuw i8, ptr %0, i64 28
  %11 = getelementptr inbounds nuw i8, ptr %0, i64 88
  %12 = getelementptr inbounds nuw i8, ptr %3, i64 24
  br label %.thread.i

.thread.i:                                        ; preds = %.thread.i.backedge, %2
  %.promoted.i = load i64, ptr %6, align 8, !tbaa !70
  %13 = load ptr, ptr %7, align 8
  br label %14

14:                                               ; preds = %17, %.thread.i
  %15 = phi i64 [ %16, %17 ], [ %.promoted.i, %.thread.i ]
  %16 = add i64 %15, -1
  store i64 %16, ptr %6, align 8, !tbaa !70
  %.not.i = icmp eq i64 %16, 0
  br i1 %.not.i, label %path_is_beyond_symlink_1.exit, label %17

17:                                               ; preds = %14
  %18 = getelementptr inbounds nuw i8, ptr %13, i64 %16
  %19 = load i8, ptr %18, align 1, !tbaa !53
  %.not24.i = icmp eq i8 %19, 47
  br i1 %.not24.i, label %.critedge.i, label %14, !llvm.loop !232

.critedge.i:                                      ; preds = %17
  %20 = getelementptr inbounds nuw i8, ptr %13, i64 %16
  store i8 0, ptr %20, align 1, !tbaa !53
  %21 = load ptr, ptr %7, align 8, !tbaa !69
  %22 = call i32 @strmap_contains(ptr noundef nonnull %8, ptr noundef %21) #21
  %.not26.i = icmp eq i32 %22, 0
  br i1 %.not26.i, label %23, label %path_is_beyond_symlink_1.exit

23:                                               ; preds = %.critedge.i
  %24 = load ptr, ptr %7, align 8, !tbaa !69
  %25 = call i32 @strmap_contains(ptr noundef nonnull %9, ptr noundef %24) #21
  %.not27.i = icmp eq i32 %25, 0
  br i1 %.not27.i, label %26, label %.thread.i.backedge

26:                                               ; preds = %23
  %27 = load i32, ptr %10, align 4, !tbaa !42
  %.not28.i = icmp eq i32 %27, 0
  br i1 %.not28.i, label %42, label %28

28:                                               ; preds = %26
  %29 = load ptr, ptr %11, align 8, !tbaa !23
  %30 = getelementptr inbounds nuw i8, ptr %29, i64 384
  %31 = load ptr, ptr %30, align 8, !tbaa !109
  %32 = load ptr, ptr %7, align 8, !tbaa !69
  %33 = load i64, ptr %6, align 8, !tbaa !70
  %34 = trunc i64 %33 to i32
  %35 = load i32, ptr @ignore_case, align 4, !tbaa !34
  %36 = call ptr @index_file_exists(ptr noundef %31, ptr noundef %32, i32 noundef %34, i32 noundef %35) #21
  %.not30.i = icmp eq ptr %36, null
  br i1 %.not30.i, label %.thread.i.backedge, label %37

37:                                               ; preds = %28
  %38 = getelementptr inbounds nuw i8, ptr %36, i64 52
  %39 = load i32, ptr %38, align 4, !tbaa !34
  %40 = and i32 %39, 61440
  %41 = icmp eq i32 %40, 40960
  br i1 %41, label %path_is_beyond_symlink_1.exit, label %.thread.i.backedge

42:                                               ; preds = %26
  call void @llvm.lifetime.start.p0(i64 144, ptr nonnull %3) #21
  %43 = load ptr, ptr %7, align 8, !tbaa !69
  %44 = call i32 @lstat64(ptr noundef %43, ptr noundef nonnull %3) #21
  %.not29.i = icmp eq i32 %44, 0
  br i1 %.not29.i, label %45, label %.thread35.i

45:                                               ; preds = %42
  %46 = load i32, ptr %12, align 8, !tbaa !169
  %47 = and i32 %46, 61440
  %48 = icmp eq i32 %47, 40960
  br i1 %48, label %49, label %.thread35.i

.thread35.i:                                      ; preds = %45, %42
  call void @llvm.lifetime.end.p0(i64 144, ptr nonnull %3) #21
  br label %.thread.i.backedge

.thread.i.backedge:                               ; preds = %.thread35.i, %37, %28, %23
  br label %.thread.i

49:                                               ; preds = %45
  call void @llvm.lifetime.end.p0(i64 144, ptr nonnull %3) #21
  br label %path_is_beyond_symlink_1.exit

path_is_beyond_symlink_1.exit:                    ; preds = %.critedge.i, %37, %14, %49
  %.120.i = phi i32 [ 1, %49 ], [ 0, %14 ], [ 1, %37 ], [ 1, %.critedge.i ]
  call void @strbuf_release(ptr noundef nonnull %4) #21
  call void @llvm.lifetime.end.p0(i64 24, ptr nonnull %4) #21
  ret i32 %.120.i
}